target datalayout = "e-m:e-p270:32:32-p271:32:32-p272:64:64-i64:64-i128:128-f80:128-n8:16:32:64-S128"
target triple = "x86_64-pc-linux-gnu"

%"class.doctest::String" = type { %union.anon.7 }
%union.anon.7 = type { %"struct.doctest::String::view", [8 x i8] }
%"struct.doctest::String::view" = type { ptr, i32, i32 }
%"struct.doctest::SubcaseSignature" = type <{ %"class.doctest::String", ptr, i32, [4 x i8] }>
%"class.std::vector.24" = type { %"struct.std::_Vector_base.25" }
%"struct.std::_Vector_base.25" = type { %"struct.std::_Vector_base<doctest::SubcaseSignature, std::allocator<doctest::SubcaseSignature>>::_Vector_impl" }
%"struct.std::_Vector_base<doctest::SubcaseSignature, std::allocator<doctest::SubcaseSignature>>::_Vector_impl" = type { %"struct.std::_Vector_base<doctest::SubcaseSignature, std::allocator<doctest::SubcaseSignature>>::_Vector_impl_data" }
%"struct.std::_Vector_base<doctest::SubcaseSignature, std::allocator<doctest::SubcaseSignature>>::_Vector_impl_data" = type { ptr, ptr, ptr }
%"class.__gnu_cxx::__normal_iterator.36" = type { ptr }
%union.pthread_mutex_t = type { %struct.__pthread_mutex_s }
%struct.__pthread_mutex_s = type { i32, i32, i32, i32, i32, i16, i16, %struct.__pthread_internal_list }
%struct.__pthread_internal_list = type { ptr, ptr }
%"struct.doctest::IReporter" = type { ptr }
%"class.std::mutex" = type { %"class.std::__mutex_base" }
%"class.std::__mutex_base" = type { %union.pthread_mutex_t }
%"struct.doctest::(anonymous namespace)::ConsoleReporter" = type { %"struct.doctest::IReporter", ptr, i8, %"class.std::vector.24", i64, %"class.std::mutex", ptr, ptr }

@_ZN7doctest6StringC1ERKS0_ = dso_local unnamed_addr alias void (ptr, ptr), ptr @_ZN7doctest6StringC2ERKS0_

; Function Attrs: inlinehint mustprogress uwtable
define linkonce_odr dso_local void @_ZN7doctest16SubcaseSignatureC2ERKS0_(ptr noundef nonnull align 8 dereferenceable(36) %0, ptr noundef nonnull align 8 dereferenceable(36) %1) unnamed_addr #9 comdat align 2 {
  %3 = alloca ptr, align 8
  %4 = alloca ptr, align 8
  store ptr %0, ptr %3, align 8, !tbaa !86
  store ptr %1, ptr %4, align 8, !tbaa !86
  %5 = load ptr, ptr %3, align 8
  %6 = getelementptr inbounds nuw %"struct.doctest::SubcaseSignature", ptr %5, i32 0, i32 0
  %7 = load ptr, ptr %4, align 8, !tbaa !86
  %8 = getelementptr inbounds nuw %"struct.doctest::SubcaseSignature", ptr %7, i32 0, i32 0
  call void @_ZN7doctest6StringC1ERKS0_(ptr noundef nonnull align 8 dereferenceable(24) %6, ptr noundef nonnull align 8 dereferenceable(24) %8)
  %9 = getelementptr inbounds nuw %"struct.doctest::SubcaseSignature", ptr %5, i32 0, i32 1
  %10 = load ptr, ptr %4, align 8
  %11 = getelementptr inbounds nuw %"struct.doctest::SubcaseSignature", ptr %10, i32 0, i32 1
  call void @llvm.memcpy.p0.p0.i64(ptr align 8 %9, ptr align 8 %11, i64 12, i1 false)
  ret void
}

; Function Attrs: mustprogress nounwind uwtable
define linkonce_odr dso_local void @_ZN9__gnu_cxx17__normal_iteratorIPN7doctest16SubcaseSignatureESt6vectorIS2_SaIS2_EEEC2ERKS3_(ptr noundef nonnull align 8 dereferenceable(8) %0, ptr noundef nonnull align 8 dereferenceable(8) %1) unnamed_addr #1 comdat align 2 {
  %3 = alloca ptr, align 8
  %4 = alloca ptr, align 8
  store ptr %0, ptr %3, align 8, !tbaa !187
  store ptr %1, ptr %4, align 8, !tbaa !524
  %5 = load ptr, ptr %3, align 8
  %6 = getelementptr inbounds nuw %"class.__gnu_cxx::__normal_iterator.36", ptr %5, i32 0, i32 0
  %7 = load ptr, ptr %4, align 8, !tbaa !524
  %8 = load ptr, ptr %7, align 8, !tbaa !86
  store ptr %8, ptr %6, align 8, !tbaa !191
  ret void
}

; Function Attrs: mustprogress uwtable
define linkonce_odr dso_local void @_ZNSt15__new_allocatorIN7doctest16SubcaseSignatureEE9constructIS1_JRKS1_EEEvPT_DpOT0_(ptr noundef nonnull align 1 dereferenceable(1) %0, ptr noundef %1, ptr noundef nonnull align 8 dereferenceable(36) %2) #8 comdat align 2 {
  %4 = alloca ptr, align 8
  %5 = alloca ptr, align 8
  %6 = alloca ptr, align 8
  store ptr %0, ptr %4, align 8, !tbaa !634
  store ptr %1, ptr %5, align 8, !tbaa !86
  store ptr %2, ptr %6, align 8, !tbaa !86
  %7 = load ptr, ptr %5, align 8, !tbaa !86
  %8 = load ptr, ptr %6, align 8, !tbaa !86
  call void @_ZN7doctest16SubcaseSignatureC2ERKS0_(ptr noundef nonnull align 8 dereferenceable(36) %7, ptr noundef nonnull align 8 dereferenceable(36) %8)
  ret void
}

; Function Attrs: mustprogress nounwind uwtable
define linkonce_odr dso_local ptr @_ZNSt6vectorIN7doctest16SubcaseSignatureESaIS1_EE3endEv(ptr noundef nonnull align 8 dereferenceable(24) %0) #1 comdat align 2 {
  %2 = alloca %"class.__gnu_cxx::__normal_iterator.36", align 8
  %3 = alloca ptr, align 8
  store ptr %0, ptr %3, align 8, !tbaa !121
  %4 = load ptr, ptr %3, align 8
  %5 = getelementptr inbounds nuw %"struct.std::_Vector_base.25", ptr %4, i32 0, i32 0
  %6 = getelementptr inbounds nuw %"struct.std::_Vector_base<doctest::SubcaseSignature, std::allocator<doctest::SubcaseSignature>>::_Vector_impl_data", ptr %5, i32 0, i32 1
  call void @_ZN9__gnu_cxx17__normal_iteratorIPN7doctest16SubcaseSignatureESt6vectorIS2_SaIS2_EEEC2ERKS3_(ptr noundef nonnull align 8 dereferenceable(8) %2, ptr noundef nonnull align 8 dereferenceable(8) %6) #7
  %7 = getelementptr inbounds nuw %"class.__gnu_cxx::__normal_iterator.36", ptr %2, i32 0, i32 0
  %8 = load ptr, ptr %7, align 8
  ret ptr %8
}

; Function Attrs: mustprogress uwtable
define linkonce_odr dso_local void @_ZNSt16allocator_traitsISaIN7doctest16SubcaseSignatureEEE9constructIS1_JRKS1_EEEvRS2_PT_DpOT0_(ptr noundef nonnull align 1 dereferenceable(1) %0, ptr noundef %1, ptr noundef nonnull align 8 dereferenceable(36) %2) #8 comdat align 2 {
  %4 = alloca ptr, align 8
  %5 = alloca ptr, align 8
  %6 = alloca ptr, align 8
  store ptr %0, ptr %4, align 8, !tbaa !630
  store ptr %1, ptr %5, align 8, !tbaa !86
  store ptr %2, ptr %6, align 8, !tbaa !86
  %7 = load ptr, ptr %4, align 8, !tbaa !630
  %8 = load ptr, ptr %5, align 8, !tbaa !86
  %9 = load ptr, ptr %6, align 8, !tbaa !86
  call void @_ZNSt15__new_allocatorIN7doctest16SubcaseSignatureEE9constructIS1_JRKS1_EEEvPT_DpOT0_(ptr noundef nonnull align 1 dereferenceable(1) %7, ptr noundef %8, ptr noundef nonnull align 8 dereferenceable(36) %9)
  ret void
}

; Function Attrs: mustprogress uwtable
define linkonce_odr dso_local void @_ZNSt6vectorIN7doctest16SubcaseSignatureESaIS1_EE9push_backERKS1_(ptr noundef nonnull align 8 dereferenceable(24) %0, ptr noundef nonnull align 8 dereferenceable(36) %1) #8 comdat align 2 {
  %3 = alloca ptr, align 8
  %4 = alloca ptr, align 8
  %5 = alloca %"class.__gnu_cxx::__normal_iterator.36", align 8
  store ptr %0, ptr %3, align 8, !tbaa !121
  store ptr %1, ptr %4, align 8, !tbaa !86
  %6 = load ptr, ptr %3, align 8
  %7 = getelementptr inbounds nuw %"struct.std::_Vector_base.25", ptr %6, i32 0, i32 0
  %8 = getelementptr inbounds nuw %"struct.std::_Vector_base<doctest::SubcaseSignature, std::allocator<doctest::SubcaseSignature>>::_Vector_impl_data", ptr %7, i32 0, i32 1
  %9 = load ptr, ptr %8, align 8, !tbaa !123
  %10 = getelementptr inbounds nuw %"struct.std::_Vector_base.25", ptr %6, i32 0, i32 0
  %11 = getelementptr inbounds nuw %"struct.std::_Vector_base<doctest::SubcaseSignature, std::allocator<doctest::SubcaseSignature>>::_Vector_impl_data", ptr %10, i32 0, i32 2
  %12 = load ptr, ptr %11, align 8, !tbaa !169
  %13 = icmp ne ptr %9, %12
  br i1 %13, label %14, label %24

14:                                               ; preds = %2
  %15 = getelementptr inbounds nuw %"struct.std::_Vector_base.25", ptr %6, i32 0, i32 0
  %16 = getelementptr inbounds nuw %"struct.std::_Vector_base.25", ptr %6, i32 0, i32 0
  %17 = getelementptr inbounds nuw %"struct.std::_Vector_base<doctest::SubcaseSignature, std::allocator<doctest::SubcaseSignature>>::_Vector_impl_data", ptr %16, i32 0, i32 1
  %18 = load ptr, ptr %17, align 8, !tbaa !123
  %19 = load ptr, ptr %4, align 8, !tbaa !86
  call void @_ZNSt16allocator_traitsISaIN7doctest16SubcaseSignatureEEE9constructIS1_JRKS1_EEEvRS2_PT_DpOT0_(ptr noundef nonnull align 1 dereferenceable(1) %15, ptr noundef %18, ptr noundef nonnull align 8 dereferenceable(36) %19)
  %20 = getelementptr inbounds nuw %"struct.std::_Vector_base.25", ptr %6, i32 0, i32 0
  %21 = getelementptr inbounds nuw %"struct.std::_Vector_base<doctest::SubcaseSignature, std::allocator<doctest::SubcaseSignature>>::_Vector_impl_data", ptr %20, i32 0, i32 1
  %22 = load ptr, ptr %21, align 8, !tbaa !123
  %23 = getelementptr inbounds nuw %"struct.doctest::SubcaseSignature", ptr %22, i32 1
  store ptr %23, ptr %21, align 8, !tbaa !123
  br label %30

24:                                               ; preds = %2
  %25 = call ptr @_ZNSt6vectorIN7doctest16SubcaseSignatureESaIS1_EE3endEv(ptr noundef nonnull align 8 dereferenceable(24) %6) #7
  %26 = getelementptr inbounds nuw %"class.__gnu_cxx::__normal_iterator.36", ptr %5, i32 0, i32 0
  store ptr %25, ptr %26, align 8
  %27 = load ptr, ptr %4, align 8, !tbaa !86
  %28 = getelementptr inbounds nuw %"class.__gnu_cxx::__normal_iterator.36", ptr %5, i32 0, i32 0
  %29 = load ptr, ptr %28, align 8
  call void @_ZNSt6vectorIN7doctest16SubcaseSignatureESaIS1_EE17_M_realloc_insertIJRKS1_EEEvN9__gnu_cxx17__normal_iteratorIPS1_S3_EEDpOT_(ptr noundef nonnull align 8 dereferenceable(24) %6, ptr %29, ptr noundef nonnull align 8 dereferenceable(36) %27)
  br label %30

30:                                               ; preds = %24, %14
  ret void
}

; Function Attrs: mustprogress uwtable
define internal void @_ZN7doctest12_GLOBAL__N_115ConsoleReporter13subcase_startERKNS_16SubcaseSignatureE(ptr noundef nonnull align 8 dereferenceable(112) %0, ptr noundef nonnull align 8 dereferenceable(36) %1) unnamed_addr #8 align 2 {
  %3 = alloca ptr, align 8
  %4 = alloca ptr, align 8
  store ptr %0, ptr %3, align 8, !tbaa !1042
  store ptr %1, ptr %4, align 8, !tbaa !86
  %5 = load ptr, ptr %3, align 8
  %6 = getelementptr inbounds nuw %"struct.doctest::(anonymous namespace)::ConsoleReporter", ptr %5, i32 0, i32 3
  %7 = load ptr, ptr %4, align 8, !tbaa !86
  call void @_ZNSt6vectorIN7doctest16SubcaseSignatureESaIS1_EE9push_backERKS1_(ptr noundef nonnull align 8 dereferenceable(24) %6, ptr noundef nonnull align 8 dereferenceable(36) %7)
  %8 = getelementptr inbounds nuw %"struct.doctest::(anonymous namespace)::ConsoleReporter", ptr %5, i32 0, i32 4
  %9 = load i64, ptr %8, align 8, !tbaa !1051
  %10 = add i64 %9, 1
  store i64 %10, ptr %8, align 8, !tbaa !1051
  %11 = getelementptr inbounds nuw %"struct.doctest::(anonymous namespace)::ConsoleReporter", ptr %5, i32 0, i32 2
  store i8 0, ptr %11, align 8, !tbaa !1049
  ret void
}