; Function Attrs: mustprogress uwtable
define internal void @_ZN7doctest12_GLOBAL__N_115ConsoleReporter13subcase_startERKNS_16SubcaseSignatureE(ptr noundef nonnull align 8 dereferenceable(112) %0, ptr noundef nonnull align 8 dereferenceable(36) %1) unnamed_addr #8 align 2 {
  %3 = getelementptr inbounds nuw i8, ptr %0, i64 32
  %4 = load ptr, ptr %3, align 8, !tbaa !133
  %5 = getelementptr inbounds nuw i8, ptr %0, i64 40
  %6 = load ptr, ptr %5, align 8, !tbaa !177
  %.not.i = icmp eq ptr %4, %6
  br i1 %.not.i, label %38, label %7

7:                                                ; preds = %2
  %8 = getelementptr inbounds nuw i8, ptr %1, i64 23
  %9 = load i8, ptr %8, align 1, !tbaa !38
  %10 = icmp sgt i8 %9, -1
  br i1 %10, label %11, label %12

11:                                               ; preds = %7
  tail call void @llvm.memcpy.p0.p0.i64(ptr noundef nonnull align 8 dereferenceable(36) %4, ptr noundef nonnull readonly align 8 dereferenceable(36) %1, i64 24, i1 false)
  br label %_ZNSt16allocator_traitsISaIN7doctest16SubcaseSignatureEEE9constructIS1_JRKS1_EEEvRS2_PT_DpOT0_.exit.i

12:                                               ; preds = %7
  %13 = getelementptr inbounds nuw i8, ptr %1, i64 8
  %14 = load i32, ptr %13, align 8, !tbaa !38
  %15 = icmp ult i32 %14, 24
  br i1 %15, label %16, label %22

16:                                               ; preds = %12
  %17 = zext nneg i32 %14 to i64
  %18 = getelementptr inbounds nuw [24 x i8], ptr %4, i64 0, i64 %17
  store i8 0, ptr %18, align 1, !tbaa !38
  %19 = trunc nuw i32 %14 to i8
  %20 = sub nuw nsw i8 23, %19
  %21 = getelementptr inbounds nuw i8, ptr %4, i64 23
  store i8 %20, ptr %21, align 1, !tbaa !38
  br label %_ZN7doctest6String8allocateEj.exit.i.i.i.i.i.i

22:                                               ; preds = %12
  %23 = getelementptr inbounds nuw i8, ptr %4, i64 23
  store i8 -128, ptr %23, align 1, !tbaa !38
  %24 = getelementptr inbounds nuw i8, ptr %4, i64 8
  store i32 %14, ptr %24, align 8, !tbaa !38
  %25 = add i32 %14, 1
  %26 = getelementptr inbounds nuw i8, ptr %4, i64 12
  store i32 %25, ptr %26, align 4, !tbaa !38
  %27 = zext i32 %25 to i64
  %28 = tail call noalias noundef nonnull ptr @_Znam(i64 noundef %27) #51
  store ptr %28, ptr %4, align 8, !tbaa !38
  %29 = zext i32 %14 to i64
  %30 = getelementptr inbounds nuw i8, ptr %28, i64 %29
  store i8 0, ptr %30, align 1, !tbaa !38
  br label %_ZN7doctest6String8allocateEj.exit.i.i.i.i.i.i

_ZN7doctest6String8allocateEj.exit.i.i.i.i.i.i:   ; preds = %22, %16
  %.0.i.i.i.i.i.i.i = phi ptr [ %4, %16 ], [ %28, %22 ]
  %31 = load ptr, ptr %1, align 8, !tbaa !38
  %32 = load i32, ptr %13, align 8, !tbaa !38
  %33 = zext i32 %32 to i64
  tail call void @llvm.memcpy.p0.p0.i64(ptr nonnull align 1 %.0.i.i.i.i.i.i.i, ptr align 1 %31, i64 %33, i1 false)
  br label %_ZNSt16allocator_traitsISaIN7doctest16SubcaseSignatureEEE9constructIS1_JRKS1_EEEvRS2_PT_DpOT0_.exit.i

_ZNSt16allocator_traitsISaIN7doctest16SubcaseSignatureEEE9constructIS1_JRKS1_EEEvRS2_PT_DpOT0_.exit.i: ; preds = %_ZN7doctest6String8allocateEj.exit.i.i.i.i.i.i, %11
  %34 = getelementptr inbounds nuw i8, ptr %4, i64 24
  %35 = getelementptr inbounds nuw i8, ptr %1, i64 24
  tail call void @llvm.memcpy.p0.p0.i64(ptr noundef nonnull align 8 dereferenceable(12) %34, ptr noundef nonnull align 8 dereferenceable(12) %35, i64 12, i1 false)
  %36 = load ptr, ptr %3, align 8, !tbaa !133
  %37 = getelementptr inbounds nuw i8, ptr %36, i64 40
  store ptr %37, ptr %3, align 8, !tbaa !133
  br label %_ZNSt6vectorIN7doctest16SubcaseSignatureESaIS1_EE9push_backERKS1_.exit

38:                                               ; preds = %2
  %39 = getelementptr inbounds nuw i8, ptr %0, i64 24
  tail call void @_ZNSt6vectorIN7doctest16SubcaseSignatureESaIS1_EE17_M_realloc_insertIJRKS1_EEEvN9__gnu_cxx17__normal_iteratorIPS1_S3_EEDpOT_(ptr noundef nonnull align 8 dereferenceable(24) %39, ptr %4, ptr noundef nonnull align 8 dereferenceable(36) %1)
  br label %_ZNSt6vectorIN7doctest16SubcaseSignatureESaIS1_EE9push_backERKS1_.exit

_ZNSt6vectorIN7doctest16SubcaseSignatureESaIS1_EE9push_backERKS1_.exit: ; preds = %_ZNSt16allocator_traitsISaIN7doctest16SubcaseSignatureEEE9constructIS1_JRKS1_EEEvRS2_PT_DpOT0_.exit.i, %38
  %40 = getelementptr inbounds nuw i8, ptr %0, i64 48
  %41 = load i64, ptr %40, align 8, !tbaa !697
  %42 = add i64 %41, 1
  store i64 %42, ptr %40, align 8, !tbaa !697
  %43 = getelementptr inbounds nuw i8, ptr %0, i64 16
  store i8 0, ptr %43, align 8, !tbaa !695
  ret void
}